; Function Attrs: mustprogress nounwind uwtable
define internal void @"_ZN4node13CallbackQueueIvJPNS_11EnvironmentEEE12CallbackImplIZN15node_napi_env__16EnqueueFinalizerEPN6v8impl10RefTrackerEE3$_0E4CallES2_"(ptr nocapture noundef nonnull readonly align 8 dereferenceable(32) %this, ptr nocapture readnone %args) unnamed_addr #3 align 2 {
entry:
  %ref_tracker.i.i = alloca ptr, align 8
  %callback_ = getelementptr inbounds i8, ptr %this, i64 24
  %callback_.val = load ptr, ptr %callback_, align 8
  %finalization_scheduled.i = getelementptr inbounds i8, ptr %callback_.val, i64 225
  store i8 0, ptr %finalization_scheduled.i, align 1
  %refs.i.i = getelementptr inbounds i8, ptr %callback_.val, i64 168
  %0 = load i32, ptr %refs.i.i, align 8
  %dec.i.i = add nsw i32 %0, -1
  store i32 %dec.i.i, ptr %refs.i.i, align 8
  %cmp.i.i = icmp eq i32 %dec.i.i, 0
  br i1 %cmp.i.i, label %if.then.i.i, label %_ZN10napi_env__5UnrefEv.exit.i

if.then.i.i:                                      ; preds = %entry
  %vtable.i.i = load ptr, ptr %callback_.val, align 8
  %vfn.i.i = getelementptr inbounds i8, ptr %vtable.i.i, i64 32
  %1 = load ptr, ptr %vfn.i.i, align 8
  tail call void %1(ptr noundef nonnull align 8 dereferenceable(189) %callback_.val) #21
  br label %_ZN10napi_env__5UnrefEv.exit.i

_ZN10napi_env__5UnrefEv.exit.i:                   ; preds = %if.then.i.i, %entry
  call void @llvm.lifetime.start.p0(i64 8, ptr nonnull %ref_tracker.i.i)
  %_M_element_count.i.i.i.i.i = getelementptr inbounds i8, ptr %callback_.val, i64 104
  %2 = load i64, ptr %_M_element_count.i.i.i.i.i, align 8
  %cmp.i.i1.i.i = icmp eq i64 %2, 0
  br i1 %cmp.i.i1.i.i, label %"_ZZN15node_napi_env__16EnqueueFinalizerEPN6v8impl10RefTrackerEENK3$_0clEPN4node11EnvironmentE.exit", label %while.body.lr.ph.i.i

while.body.lr.ph.i.i:                             ; preds = %_ZN10napi_env__5UnrefEv.exit.i
  %pending_finalizers.i.i = getelementptr inbounds i8, ptr %callback_.val, i64 80
  %_M_before_begin.i.i.i.i.i = getelementptr inbounds i8, ptr %callback_.val, i64 96
  br label %while.body.i.i

while.body.i.i:                                   ; preds = %while.body.i.i, %while.body.lr.ph.i.i
  %3 = load ptr, ptr %_M_before_begin.i.i.i.i.i, align 8
  %add.ptr.i.i.i = getelementptr inbounds i8, ptr %3, i64 8
  %4 = load ptr, ptr %add.ptr.i.i.i, align 8
  store ptr %4, ptr %ref_tracker.i.i, align 8
  %call.i.i.i.i = call noundef i64 @_ZNSt10_HashtableIPN6v8impl10RefTrackerES2_SaIS2_ENSt8__detail9_IdentityESt8equal_toIS2_ESt4hashIS2_ENS4_18_Mod_range_hashingENS4_20_Default_ranged_hashENS4_20_Prime_rehash_policyENS4_17_Hashtable_traitsILb0ELb1ELb1EEEE8_M_eraseESt17integral_constantIbLb1EERKS2_(ptr noundef nonnull align 8 dereferenceable(56) %pending_finalizers.i.i, ptr noundef nonnull align 8 dereferenceable(8) %ref_tracker.i.i)
  %5 = load ptr, ptr %ref_tracker.i.i, align 8
  %vtable.i1.i = load ptr, ptr %5, align 8
  %vfn.i2.i = getelementptr inbounds i8, ptr %vtable.i1.i, i64 16
  %6 = load ptr, ptr %vfn.i2.i, align 8
  call void %6(ptr noundef nonnull align 8 dereferenceable(24) %5) #21
  %7 = load i64, ptr %_M_element_count.i.i.i.i.i, align 8
  %cmp.i.i.i.i = icmp eq i64 %7, 0
  br i1 %cmp.i.i.i.i, label %"_ZZN15node_napi_env__16EnqueueFinalizerEPN6v8impl10RefTrackerEENK3$_0clEPN4node11EnvironmentE.exit", label %while.body.i.i, !llvm.loop !5

"_ZZN15node_napi_env__16EnqueueFinalizerEPN6v8impl10RefTrackerEENK3$_0clEPN4node11EnvironmentE.exit": ; preds = %while.body.i.i, %_ZN10napi_env__5UnrefEv.exit.i
  call void @llvm.lifetime.end.p0(i64 8, ptr nonnull %ref_tracker.i.i)
  ret void
}